; Function Attrs: mustprogress uwtable
define hidden void @_ZN3sat6solver9set_watchERNS_6clauseEjm(ptr nocapture noundef nonnull readonly align 8 dereferenceable(4408) %this, ptr nocapture noundef nonnull align 4 dereferenceable(20) %c, i32 noundef %idx, i64 noundef %cls_off) local_unnamed_addr #3 align 2 {
entry:
  %m_lits.i = getelementptr inbounds i8, ptr %c, i64 20
  %arrayidx.i = getelementptr inbounds i8, ptr %c, i64 24
  %idxprom.i = zext i32 %idx to i64
  %arrayidx.i5 = getelementptr inbounds [0 x %"class.sat::literal"], ptr %m_lits.i, i64 0, i64 %idxprom.i
  %__tmp.sroa.0.0.copyload.i = load i32, ptr %arrayidx.i, align 4
  %0 = load i32, ptr %arrayidx.i5, align 4
  store i32 %0, ptr %arrayidx.i, align 4
  store i32 %__tmp.sroa.0.0.copyload.i, ptr %arrayidx.i5, align 4
  %m_watches = getelementptr inbounds i8, ptr %this, i64 3432
  %agg.tmp.sroa.0.0.copyload = load i32, ptr %arrayidx.i, align 4
  %xor.i = xor i32 %agg.tmp.sroa.0.0.copyload, 1
  %1 = load ptr, ptr %m_watches, align 8
  %idxprom.i8 = zext i32 %xor.i to i64
  %arrayidx.i9 = getelementptr inbounds %class.vector.53, ptr %1, i64 %idxprom.i8
  %agg.tmp9.sroa.0.0.copyload = load i32, ptr %m_lits.i, align 4
  %2 = load ptr, ptr %arrayidx.i9, align 8
  %cmp.i = icmp eq ptr %2, null
  br i1 %cmp.i, label %if.then.i, label %lor.lhs.false.i

lor.lhs.false.i:                                  ; preds = %entry
  %arrayidx.i11 = getelementptr inbounds i8, ptr %2, i64 -4
  %3 = load i32, ptr %arrayidx.i11, align 4
  %arrayidx4.i = getelementptr inbounds i8, ptr %2, i64 -8
  %4 = load i32, ptr %arrayidx4.i, align 4
  %cmp5.i = icmp eq i32 %3, %4
  br i1 %cmp5.i, label %if.then.i, label %_ZN6vectorIN3sat7watchedELb1EjE9push_backEOS1_.exit

if.then.i:                                        ; preds = %lor.lhs.false.i, %entry
  tail call void @_ZN6vectorIN3sat7watchedELb1EjE13expand_vectorEv(ptr noundef nonnull align 8 dereferenceable(8) %arrayidx.i9)
  %.pre.i = load ptr, ptr %arrayidx.i9, align 8
  %arrayidx8.phi.trans.insert.i = getelementptr inbounds i8, ptr %.pre.i, i64 -4
  %.pre1.i = load i32, ptr %arrayidx8.phi.trans.insert.i, align 4
  br label %_ZN6vectorIN3sat7watchedELb1EjE9push_backEOS1_.exit

_ZN6vectorIN3sat7watchedELb1EjE9push_backEOS1_.exit: ; preds = %lor.lhs.false.i, %if.then.i
  %5 = phi i32 [ %.pre1.i, %if.then.i ], [ %3, %lor.lhs.false.i ]
  %6 = phi ptr [ %.pre.i, %if.then.i ], [ %2, %lor.lhs.false.i ]
  %shl.i = shl i32 %agg.tmp9.sroa.0.0.copyload, 2
  %add.i = or disjoint i32 %shl.i, 1
  %idx.ext.i = zext i32 %5 to i64
  %add.ptr.i = getelementptr inbounds %"class.sat::watched", ptr %6, i64 %idx.ext.i
  store i64 %cls_off, ptr %add.ptr.i, align 8
  %ref.tmp8.sroa.2.0.add.ptr.i.sroa_idx = getelementptr inbounds i8, ptr %add.ptr.i, i64 8
  store i32 %add.i, ptr %ref.tmp8.sroa.2.0.add.ptr.i.sroa_idx, align 8
  %7 = load ptr, ptr %arrayidx.i9, align 8
  %arrayidx10.i = getelementptr inbounds i8, ptr %7, i64 -4
  %8 = load i32, ptr %arrayidx10.i, align 4
  %inc.i = add i32 %8, 1
  store i32 %inc.i, ptr %arrayidx10.i, align 4
  ret void
}